; Function Attrs: nounwind uwtable
define internal { i64, i64 } @js_std_setenv(ptr noundef %0, i64 %1, i64 %2, i32 %3, ptr nocapture noundef readonly %4) #0 {
  %6 = load i64, ptr %4, align 8
  %7 = getelementptr inbounds i8, ptr %4, i64 8
  %8 = load i64, ptr %7, align 8
  %9 = tail call ptr @JS_ToCStringLen2(ptr noundef %0, ptr noundef null, i64 %6, i64 %8, i32 noundef 0) #29
  %.not = icmp eq ptr %9, null
  br i1 %.not, label %18, label %10

10:                                               ; preds = %5
  %11 = getelementptr i8, ptr %4, i64 16
  %12 = load i64, ptr %11, align 8
  %13 = getelementptr i8, ptr %4, i64 24
  %14 = load i64, ptr %13, align 8
  %15 = tail call ptr @JS_ToCStringLen2(ptr noundef %0, ptr noundef null, i64 %12, i64 %14, i32 noundef 0) #29
  %.not18 = icmp eq ptr %15, null
  br i1 %.not18, label %.sink.split, label %16

16:                                               ; preds = %10
  %17 = tail call i32 @setenv(ptr noundef nonnull %9, ptr noundef nonnull %15, i32 noundef 1) #29
  tail call void @JS_FreeCString(ptr noundef %0, ptr noundef nonnull %9) #29
  br label %.sink.split

.sink.split:                                      ; preds = %10, %16
  %.sink = phi ptr [ %15, %16 ], [ %9, %10 ]
  %.sroa.4.sroa.1.0.ph = phi i64 [ 3, %16 ], [ 6, %10 ]
  tail call void @JS_FreeCString(ptr noundef %0, ptr noundef nonnull %.sink) #29
  br label %18

18:                                               ; preds = %.sink.split, %5
  %.sroa.4.sroa.1.0 = phi i64 [ 6, %5 ], [ %.sroa.4.sroa.1.0.ph, %.sink.split ]
  %.fca.1.insert = insertvalue { i64, i64 } { i64 0, i64 poison }, i64 %.sroa.4.sroa.1.0, 1
  ret { i64, i64 } %.fca.1.insert
}